; Function Attrs: mustprogress uwtable
define dso_local void @_ZN9EmitCFunc15emitDereferenceEP7AstNodeRKNSt7__cxx1112basic_stringIcSt11char_traitsIcESaIcEEE(ptr nocapture noundef nonnull readonly align 8 dereferenceable(361) %0, ptr noundef %1, ptr noundef nonnull align 8 dereferenceable(32) %2) local_unnamed_addr #3 align 2 personality ptr @__gxx_personality_v0 {
  %4 = alloca %"class.std::__cxx11::basic_string", align 8
  %5 = alloca %"class.std::__cxx11::basic_string", align 8
  %6 = alloca %"class.std::allocator", align 1
  %7 = alloca %"class.std::__cxx11::basic_string", align 8
  %8 = alloca %"class.std::allocator", align 1
  %9 = tail call noundef nonnull align 1 dereferenceable(1) ptr @_ZNKSt7__cxx1112basic_stringIcSt11char_traitsIcESaIcEEixEm(ptr noundef nonnull align 8 dereferenceable(32) %2, i64 noundef 0) #17
  %10 = load i8, ptr %9, align 1
  %11 = icmp eq i8 %10, 40
  br i1 %11, label %12, label %33

12:                                               ; preds = %3
  %13 = tail call noundef nonnull align 1 dereferenceable(1) ptr @_ZNKSt7__cxx1112basic_stringIcSt11char_traitsIcESaIcEEixEm(ptr noundef nonnull align 8 dereferenceable(32) %2, i64 noundef 1) #17
  %14 = load i8, ptr %13, align 1
  %15 = icmp eq i8 %14, 38
  br i1 %15, label %16, label %33

16:                                               ; preds = %12
  %17 = tail call noundef i64 @_ZNKSt7__cxx1112basic_stringIcSt11char_traitsIcESaIcEE6lengthEv(ptr noundef nonnull align 8 dereferenceable(32) %2) #17
  %18 = add i64 %17, -3
  call void @_ZNKSt7__cxx1112basic_stringIcSt11char_traitsIcESaIcEE6substrEmm(ptr dead_on_unwind nonnull writable sret(%"class.std::__cxx11::basic_string") align 8 %4, ptr noundef nonnull align 8 dereferenceable(32) %2, i64 noundef 2, i64 noundef %18)
  %19 = getelementptr inbounds i8, ptr %0, i64 8
  %20 = load ptr, ptr %19, align 8
  %21 = call noundef ptr @_ZNKSt7__cxx1112basic_stringIcSt11char_traitsIcESaIcEE5c_strEv(ptr noundef nonnull align 8 dereferenceable(32) %4) #17
  invoke void @_ZN14V3OutFormatter5putnsEPK7AstNodePKc(ptr noundef nonnull align 8 dereferenceable(164) %20, ptr noundef %1, ptr noundef %21)
          to label %_ZN21EmitCBaseVisitorConst5putnsEPK7AstNodeRKNSt7__cxx1112basic_stringIcSt11char_traitsIcESaIcEEE.exit unwind label %27

_ZN21EmitCBaseVisitorConst5putnsEPK7AstNodeRKNSt7__cxx1112basic_stringIcSt11char_traitsIcESaIcEEE.exit: ; preds = %16
  call void @_ZNSt7__cxx1112basic_stringIcSt11char_traitsIcESaIcEED1Ev(ptr noundef nonnull align 8 dereferenceable(32) %4) #17
  call void @_ZNSaIcEC1Ev(ptr noundef nonnull align 1 dereferenceable(1) %6) #17
  %22 = invoke noundef ptr @_ZNSt7__cxx1112basic_stringIcSt11char_traitsIcESaIcEE13_M_local_dataEv(ptr noundef nonnull align 8 dereferenceable(32) %5)
          to label %.noexc unwind label %29

.noexc:                                           ; preds = %_ZN21EmitCBaseVisitorConst5putnsEPK7AstNodeRKNSt7__cxx1112basic_stringIcSt11char_traitsIcESaIcEEE.exit
  invoke void @_ZNSt7__cxx1112basic_stringIcSt11char_traitsIcESaIcEE12_Alloc_hiderC1EPcRKS3_(ptr noundef nonnull align 8 dereferenceable(8) %5, ptr noundef %22, ptr noundef nonnull align 1 dereferenceable(1) %6)
          to label %.noexc16 unwind label %29

.noexc16:                                         ; preds = %.noexc
  invoke void @_ZNSt7__cxx1112basic_stringIcSt11char_traitsIcESaIcEE12_M_constructIPKcEEvT_S8_St20forward_iterator_tag(ptr noundef nonnull align 8 dereferenceable(32) %5, ptr noundef nonnull @.str.43, ptr noundef nonnull getelementptr inbounds ([2 x i8], ptr @.str.43, i64 0, i64 1))
          to label %_ZNSt7__cxx1112basic_stringIcSt11char_traitsIcESaIcEEC2IS3_EEPKcRKS3_.exit unwind label %23

23:                                               ; preds = %.noexc16
  %24 = landingpad { ptr, i32 }
          cleanup
  call void @_ZNSaIcED2Ev(ptr noundef nonnull align 1 dereferenceable(1) %5) #17
  br label %.body

_ZNSt7__cxx1112basic_stringIcSt11char_traitsIcESaIcEEC2IS3_EEPKcRKS3_.exit: ; preds = %.noexc16
  %25 = load ptr, ptr %19, align 8
  %26 = call noundef ptr @_ZNKSt7__cxx1112basic_stringIcSt11char_traitsIcESaIcEE5c_strEv(ptr noundef nonnull align 8 dereferenceable(32) %5) #17
  invoke void @_ZN14V3OutFormatter5putnsEPK7AstNodePKc(ptr noundef nonnull align 8 dereferenceable(164) %25, ptr noundef null, ptr noundef %26)
          to label %_ZN21EmitCBaseVisitorConst4putsERKNSt7__cxx1112basic_stringIcSt11char_traitsIcESaIcEEE.exit unwind label %31

27:                                               ; preds = %16
  %28 = landingpad { ptr, i32 }
          cleanup
  call void @_ZNSt7__cxx1112basic_stringIcSt11char_traitsIcESaIcEED1Ev(ptr noundef nonnull align 8 dereferenceable(32) %4) #17
  br label %46

29:                                               ; preds = %.noexc, %_ZN21EmitCBaseVisitorConst5putnsEPK7AstNodeRKNSt7__cxx1112basic_stringIcSt11char_traitsIcESaIcEEE.exit
  %30 = landingpad { ptr, i32 }
          cleanup
  br label %.body

31:                                               ; preds = %_ZNSt7__cxx1112basic_stringIcSt11char_traitsIcESaIcEEC2IS3_EEPKcRKS3_.exit
  %32 = landingpad { ptr, i32 }
          cleanup
  call void @_ZNSt7__cxx1112basic_stringIcSt11char_traitsIcESaIcEED1Ev(ptr noundef nonnull align 8 dereferenceable(32) %5) #17
  br label %.body

.body:                                            ; preds = %29, %23, %31
  %.pn13 = phi { ptr, i32 } [ %32, %31 ], [ %30, %29 ], [ %24, %23 ]
  call void @_ZNSaIcED1Ev(ptr noundef nonnull align 1 dereferenceable(1) %6) #17
  br label %46

33:                                               ; preds = %12, %3
  %34 = getelementptr inbounds i8, ptr %0, i64 8
  %35 = load ptr, ptr %34, align 8
  %36 = tail call noundef ptr @_ZNKSt7__cxx1112basic_stringIcSt11char_traitsIcESaIcEE5c_strEv(ptr noundef nonnull align 8 dereferenceable(32) %2) #17
  tail call void @_ZN14V3OutFormatter5putnsEPK7AstNodePKc(ptr noundef nonnull align 8 dereferenceable(164) %35, ptr noundef %1, ptr noundef %36)
  call void @_ZNSaIcEC1Ev(ptr noundef nonnull align 1 dereferenceable(1) %8) #17
  %37 = invoke noundef ptr @_ZNSt7__cxx1112basic_stringIcSt11char_traitsIcESaIcEE13_M_local_dataEv(ptr noundef nonnull align 8 dereferenceable(32) %7)
          to label %.noexc18 unwind label %42

.noexc18:                                         ; preds = %33
  invoke void @_ZNSt7__cxx1112basic_stringIcSt11char_traitsIcESaIcEE12_Alloc_hiderC1EPcRKS3_(ptr noundef nonnull align 8 dereferenceable(8) %7, ptr noundef %37, ptr noundef nonnull align 1 dereferenceable(1) %8)
          to label %.noexc19 unwind label %42

.noexc19:                                         ; preds = %.noexc18
  invoke void @_ZNSt7__cxx1112basic_stringIcSt11char_traitsIcESaIcEE12_M_constructIPKcEEvT_S8_St20forward_iterator_tag(ptr noundef nonnull align 8 dereferenceable(32) %7, ptr noundef nonnull @.str.44, ptr noundef nonnull getelementptr inbounds ([3 x i8], ptr @.str.44, i64 0, i64 2))
          to label %_ZNSt7__cxx1112basic_stringIcSt11char_traitsIcESaIcEEC2IS3_EEPKcRKS3_.exit22 unwind label %38

38:                                               ; preds = %.noexc19
  %39 = landingpad { ptr, i32 }
          cleanup
  call void @_ZNSaIcED2Ev(ptr noundef nonnull align 1 dereferenceable(1) %7) #17
  br label %.body20

_ZNSt7__cxx1112basic_stringIcSt11char_traitsIcESaIcEEC2IS3_EEPKcRKS3_.exit22: ; preds = %.noexc19
  %40 = load ptr, ptr %34, align 8
  %41 = call noundef ptr @_ZNKSt7__cxx1112basic_stringIcSt11char_traitsIcESaIcEE5c_strEv(ptr noundef nonnull align 8 dereferenceable(32) %7) #17
  invoke void @_ZN14V3OutFormatter5putnsEPK7AstNodePKc(ptr noundef nonnull align 8 dereferenceable(164) %40, ptr noundef null, ptr noundef %41)
          to label %_ZN21EmitCBaseVisitorConst4putsERKNSt7__cxx1112basic_stringIcSt11char_traitsIcESaIcEEE.exit unwind label %44

42:                                               ; preds = %.noexc18, %33
  %43 = landingpad { ptr, i32 }
          cleanup
  br label %.body20

44:                                               ; preds = %_ZNSt7__cxx1112basic_stringIcSt11char_traitsIcESaIcEEC2IS3_EEPKcRKS3_.exit22
  %45 = landingpad { ptr, i32 }
          cleanup
  call void @_ZNSt7__cxx1112basic_stringIcSt11char_traitsIcESaIcEED1Ev(ptr noundef nonnull align 8 dereferenceable(32) %7) #17
  br label %.body20

.body20:                                          ; preds = %42, %38, %44
  %.pn = phi { ptr, i32 } [ %45, %44 ], [ %43, %42 ], [ %39, %38 ]
  call void @_ZNSaIcED1Ev(ptr noundef nonnull align 1 dereferenceable(1) %8) #17
  br label %46

_ZN21EmitCBaseVisitorConst4putsERKNSt7__cxx1112basic_stringIcSt11char_traitsIcESaIcEEE.exit: ; preds = %_ZNSt7__cxx1112basic_stringIcSt11char_traitsIcESaIcEEC2IS3_EEPKcRKS3_.exit22, %_ZNSt7__cxx1112basic_stringIcSt11char_traitsIcESaIcEEC2IS3_EEPKcRKS3_.exit
  %.sink25 = phi ptr [ %5, %_ZNSt7__cxx1112basic_stringIcSt11char_traitsIcESaIcEEC2IS3_EEPKcRKS3_.exit ], [ %7, %_ZNSt7__cxx1112basic_stringIcSt11char_traitsIcESaIcEEC2IS3_EEPKcRKS3_.exit22 ]
  %.sink = phi ptr [ %6, %_ZNSt7__cxx1112basic_stringIcSt11char_traitsIcESaIcEEC2IS3_EEPKcRKS3_.exit ], [ %8, %_ZNSt7__cxx1112basic_stringIcSt11char_traitsIcESaIcEEC2IS3_EEPKcRKS3_.exit22 ]
  call void @_ZNSt7__cxx1112basic_stringIcSt11char_traitsIcESaIcEED1Ev(ptr noundef nonnull align 8 dereferenceable(32) %.sink25) #17
  call void @_ZNSaIcED1Ev(ptr noundef nonnull align 1 dereferenceable(1) %.sink) #17
  ret void

46:                                               ; preds = %.body20, %.body, %27
  %.pn13.pn = phi { ptr, i32 } [ %.pn13, %.body ], [ %28, %27 ], [ %.pn, %.body20 ]
  resume { ptr, i32 } %.pn13.pn
}